target datalayout = "e-m:e-p270:32:32-p271:32:32-p272:64:64-i64:64-i128:128-f80:128-n8:16:32:64-S128"
target triple = "x86_64-pc-linux-gnu"

%struct._zend_ssa_op = type { i32, i32, i32, i32, i32, i32, i32, i32, i32 }
%struct._zend_ssa = type { %struct._zend_cfg, i32, i32, ptr, ptr, ptr, ptr }
%struct._zend_cfg = type { i32, i32, ptr, ptr, ptr, i32 }
%struct._zend_basic_block = type { ptr, i32, i32, i32, i32, i32, i32, i32, i32, i32, i32, i32, [2 x i32] }
%struct._zend_ssa_phi = type { ptr, i32, %union._zend_ssa_pi_constraint, i32, i32, i32, i8, ptr, ptr, ptr }
%union._zend_ssa_pi_constraint = type { %struct._zend_ssa_range_constraint }
%struct._zend_ssa_range_constraint = type { %struct._zend_ssa_range, i32, i32, i32, i32, i32 }
%struct._zend_ssa_range = type { i64, i64, i8, i8 }
%struct._zend_ssa_var = type { i32, i32, i32, i32, ptr, ptr, ptr, i8 }

; Function Attrs: alwaysinline nounwind uwtable
define internal i32 @zend_ssa_next_use(ptr noundef %0, i32 noundef %1, i32 noundef %2) #1 {
  %4 = alloca i32, align 4
  %5 = alloca ptr, align 8
  %6 = alloca i32, align 4
  %7 = alloca i32, align 4
  store ptr %0, ptr %5, align 8, !tbaa !13
  store i32 %1, ptr %6, align 4, !tbaa !11
  store i32 %2, ptr %7, align 4, !tbaa !11
  %8 = load i32, ptr %7, align 4, !tbaa !11
  %9 = load ptr, ptr %5, align 8, !tbaa !13
  %10 = sext i32 %8 to i64
  %11 = getelementptr inbounds %struct._zend_ssa_op, ptr %9, i64 %10
  store ptr %11, ptr %5, align 8, !tbaa !13
  %12 = load ptr, ptr %5, align 8, !tbaa !13
  %13 = getelementptr inbounds nuw %struct._zend_ssa_op, ptr %12, i32 0, i32 0
  %14 = load i32, ptr %13, align 4, !tbaa !20
  %15 = load i32, ptr %6, align 4, !tbaa !11
  %16 = icmp eq i32 %14, %15
  br i1 %16, label %17, label %21

17:                                               ; preds = %3
  %18 = load ptr, ptr %5, align 8, !tbaa !13
  %19 = getelementptr inbounds nuw %struct._zend_ssa_op, ptr %18, i32 0, i32 6
  %20 = load i32, ptr %19, align 4, !tbaa !123
  store i32 %20, ptr %4, align 4
  br label %35

21:                                               ; preds = %3
  %22 = load ptr, ptr %5, align 8, !tbaa !13
  %23 = getelementptr inbounds nuw %struct._zend_ssa_op, ptr %22, i32 0, i32 1
  %24 = load i32, ptr %23, align 4, !tbaa !23
  %25 = load i32, ptr %6, align 4, !tbaa !11
  %26 = icmp eq i32 %24, %25
  br i1 %26, label %27, label %31

27:                                               ; preds = %21
  %28 = load ptr, ptr %5, align 8, !tbaa !13
  %29 = getelementptr inbounds nuw %struct._zend_ssa_op, ptr %28, i32 0, i32 7
  %30 = load i32, ptr %29, align 4, !tbaa !124
  store i32 %30, ptr %4, align 4
  br label %35

31:                                               ; preds = %21
  %32 = load ptr, ptr %5, align 8, !tbaa !13
  %33 = getelementptr inbounds nuw %struct._zend_ssa_op, ptr %32, i32 0, i32 8
  %34 = load i32, ptr %33, align 4, !tbaa !125
  store i32 %34, ptr %4, align 4
  br label %35

35:                                               ; preds = %31, %27, %17
  %36 = load i32, ptr %4, align 4
  ret i32 %36
}

; Function Attrs: alwaysinline nounwind uwtable
define internal ptr @zend_ssa_next_use_phi(ptr noundef %0, i32 noundef %1, ptr noundef %2) #1 {
  %4 = alloca ptr, align 8
  %5 = alloca ptr, align 8
  %6 = alloca i32, align 4
  %7 = alloca ptr, align 8
  %8 = alloca i32, align 4
  %9 = alloca i32, align 4
  store ptr %0, ptr %5, align 8, !tbaa !48
  store i32 %1, ptr %6, align 4, !tbaa !11
  store ptr %2, ptr %7, align 8, !tbaa !85
  %10 = load ptr, ptr %7, align 8, !tbaa !85
  %11 = getelementptr inbounds nuw %struct._zend_ssa_phi, ptr %10, i32 0, i32 1
  %12 = load i32, ptr %11, align 8, !tbaa !91
  %13 = icmp sge i32 %12, 0
  br i1 %13, label %14, label %20

14:                                               ; preds = %3
  %15 = load ptr, ptr %7, align 8, !tbaa !85
  %16 = getelementptr inbounds nuw %struct._zend_ssa_phi, ptr %15, i32 0, i32 7
  %17 = load ptr, ptr %16, align 8, !tbaa !90
  %18 = getelementptr inbounds ptr, ptr %17, i64 0
  %19 = load ptr, ptr %18, align 8, !tbaa !85
  store ptr %19, ptr %4, align 8
  br label %62

20:                                               ; preds = %3
  call void @llvm.lifetime.start.p0(i64 4, ptr %8) #13
  store i32 0, ptr %8, align 4, !tbaa !11
  br label %21

21:                                               ; preds = %54, %20
  %22 = load i32, ptr %8, align 4, !tbaa !11
  %23 = load ptr, ptr %5, align 8, !tbaa !48
  %24 = getelementptr inbounds nuw %struct._zend_ssa, ptr %23, i32 0, i32 0
  %25 = getelementptr inbounds nuw %struct._zend_cfg, ptr %24, i32 0, i32 2
  %26 = load ptr, ptr %25, align 8, !tbaa !50
  %27 = load ptr, ptr %7, align 8, !tbaa !85
  %28 = getelementptr inbounds nuw %struct._zend_ssa_phi, ptr %27, i32 0, i32 5
  %29 = load i32, ptr %28, align 8, !tbaa !126
  %30 = sext i32 %29 to i64
  %31 = getelementptr inbounds %struct._zend_basic_block, ptr %26, i64 %30
  %32 = getelementptr inbounds nuw %struct._zend_basic_block, ptr %31, i32 0, i32 5
  %33 = load i32, ptr %32, align 8, !tbaa !77
  %34 = icmp slt i32 %22, %33
  br i1 %34, label %35, label %57

35:                                               ; preds = %21
  %36 = load ptr, ptr %7, align 8, !tbaa !85
  %37 = getelementptr inbounds nuw %struct._zend_ssa_phi, ptr %36, i32 0, i32 9
  %38 = load ptr, ptr %37, align 8, !tbaa !87
  %39 = load i32, ptr %8, align 4, !tbaa !11
  %40 = sext i32 %39 to i64
  %41 = getelementptr inbounds i32, ptr %38, i64 %40
  %42 = load i32, ptr %41, align 4, !tbaa !11
  %43 = load i32, ptr %6, align 4, !tbaa !11
  %44 = icmp eq i32 %42, %43
  br i1 %44, label %45, label %53

45:                                               ; preds = %35
  %46 = load ptr, ptr %7, align 8, !tbaa !85
  %47 = getelementptr inbounds nuw %struct._zend_ssa_phi, ptr %46, i32 0, i32 7
  %48 = load ptr, ptr %47, align 8, !tbaa !90
  %49 = load i32, ptr %8, align 4, !tbaa !11
  %50 = sext i32 %49 to i64
  %51 = getelementptr inbounds ptr, ptr %48, i64 %50
  %52 = load ptr, ptr %51, align 8, !tbaa !85
  store ptr %52, ptr %4, align 8
  store i32 1, ptr %9, align 4
  br label %58

53:                                               ; preds = %35
  br label %54

54:                                               ; preds = %53
  %55 = load i32, ptr %8, align 4, !tbaa !11
  %56 = add nsw i32 %55, 1
  store i32 %56, ptr %8, align 4, !tbaa !11
  br label %21

57:                                               ; preds = %21
  store i32 0, ptr %9, align 4
  br label %58

58:                                               ; preds = %57, %45
  call void @llvm.lifetime.end.p0(i64 4, ptr %8) #13
  %59 = load i32, ptr %9, align 4
  switch i32 %59, label %64 [
    i32 0, label %60
    i32 1, label %62
  ]

60:                                               ; preds = %58
  br label %61

61:                                               ; preds = %60
  store ptr null, ptr %4, align 8
  br label %62

62:                                               ; preds = %61, %58, %14
  %63 = load ptr, ptr %4, align 8
  ret ptr %63

64:                                               ; preds = %58
  unreachable
}

; Function Attrs: nounwind uwtable
define hidden void @zend_ssa_remove_uses_of_var(ptr noundef %0, i32 noundef %1) #0 {
  %3 = alloca ptr, align 8
  %4 = alloca i32, align 4
  %5 = alloca ptr, align 8
  %6 = alloca ptr, align 8
  %7 = alloca i32, align 4
  %8 = alloca i32, align 4
  %9 = alloca ptr, align 8
  %10 = alloca i32, align 4
  %11 = alloca i32, align 4
  %12 = alloca i32, align 4
  %13 = alloca i32, align 4
  %14 = alloca ptr, align 8
  store ptr %0, ptr %3, align 8, !tbaa !48
  store i32 %1, ptr %4, align 4, !tbaa !11
  call void @llvm.lifetime.start.p0(i64 8, ptr %5) #13
  %15 = load ptr, ptr %3, align 8, !tbaa !48
  %16 = getelementptr inbounds nuw %struct._zend_ssa, ptr %15, i32 0, i32 5
  %17 = load ptr, ptr %16, align 8, !tbaa !116
  %18 = load i32, ptr %4, align 4, !tbaa !11
  %19 = sext i32 %18 to i64
  %20 = getelementptr inbounds %struct._zend_ssa_var, ptr %17, i64 %19
  store ptr %20, ptr %5, align 8, !tbaa !117
  call void @llvm.lifetime.start.p0(i64 8, ptr %6) #13
  call void @llvm.lifetime.start.p0(i64 4, ptr %7) #13
  br label %21

21:                                               ; preds = %2
  call void @llvm.lifetime.start.p0(i64 4, ptr %8) #13
  %22 = load ptr, ptr %5, align 8, !tbaa !117
  %23 = load ptr, ptr %3, align 8, !tbaa !48
  %24 = getelementptr inbounds nuw %struct._zend_ssa, ptr %23, i32 0, i32 5
  %25 = load ptr, ptr %24, align 8, !tbaa !116
  %26 = ptrtoint ptr %22 to i64
  %27 = ptrtoint ptr %25 to i64
  %28 = sub i64 %26, %27
  %29 = sdiv exact i64 %28, 48
  %30 = trunc i64 %29 to i32
  store i32 %30, ptr %8, align 4, !tbaa !11
  call void @llvm.lifetime.start.p0(i64 8, ptr %9) #13
  %31 = load ptr, ptr %5, align 8, !tbaa !117
  %32 = getelementptr inbounds nuw %struct._zend_ssa_var, ptr %31, i32 0, i32 5
  %33 = load ptr, ptr %32, align 8, !tbaa !128
  store ptr %33, ptr %6, align 8, !tbaa !85
  br label %34

34:                                               ; preds = %87, %21
  %35 = load ptr, ptr %6, align 8, !tbaa !85
  %36 = icmp ne ptr %35, null
  br i1 %36, label %37, label %89

37:                                               ; preds = %34
  %38 = load ptr, ptr %3, align 8, !tbaa !48
  %39 = load i32, ptr %8, align 4, !tbaa !11
  %40 = load ptr, ptr %6, align 8, !tbaa !85
  %41 = call ptr @zend_ssa_next_use_phi(ptr noundef %38, i32 noundef %39, ptr noundef %40)
  store ptr %41, ptr %9, align 8, !tbaa !85
  call void @llvm.lifetime.start.p0(i64 4, ptr %10) #13
  call void @llvm.lifetime.start.p0(i64 4, ptr %11) #13
  %42 = load ptr, ptr %6, align 8, !tbaa !85
  %43 = getelementptr inbounds nuw %struct._zend_ssa_phi, ptr %42, i32 0, i32 1
  %44 = load i32, ptr %43, align 8, !tbaa !91
  %45 = icmp sge i32 %44, 0
  br i1 %45, label %46, label %47

46:                                               ; preds = %37
  br label %59

47:                                               ; preds = %37
  %48 = load ptr, ptr %3, align 8, !tbaa !48
  %49 = getelementptr inbounds nuw %struct._zend_ssa, ptr %48, i32 0, i32 0
  %50 = getelementptr inbounds nuw %struct._zend_cfg, ptr %49, i32 0, i32 2
  %51 = load ptr, ptr %50, align 8, !tbaa !50
  %52 = load ptr, ptr %6, align 8, !tbaa !85
  %53 = getelementptr inbounds nuw %struct._zend_ssa_phi, ptr %52, i32 0, i32 5
  %54 = load i32, ptr %53, align 8, !tbaa !126
  %55 = sext i32 %54 to i64
  %56 = getelementptr inbounds %struct._zend_basic_block, ptr %51, i64 %55
  %57 = getelementptr inbounds nuw %struct._zend_basic_block, ptr %56, i32 0, i32 5
  %58 = load i32, ptr %57, align 8, !tbaa !77
  br label %59

59:                                               ; preds = %47, %46
  %60 = phi i32 [ 1, %46 ], [ %58, %47 ]
  store i32 %60, ptr %11, align 4, !tbaa !11
  store i32 0, ptr %10, align 4, !tbaa !11
  br label %61

61:                                               ; preds = %83, %59
  %62 = load i32, ptr %10, align 4, !tbaa !11
  %63 = load i32, ptr %11, align 4, !tbaa !11
  %64 = icmp slt i32 %62, %63
  br i1 %64, label %65, label %86

65:                                               ; preds = %61
  %66 = load ptr, ptr %6, align 8, !tbaa !85
  %67 = getelementptr inbounds nuw %struct._zend_ssa_phi, ptr %66, i32 0, i32 9
  %68 = load ptr, ptr %67, align 8, !tbaa !87
  %69 = load i32, ptr %10, align 4, !tbaa !11
  %70 = sext i32 %69 to i64
  %71 = getelementptr inbounds i32, ptr %68, i64 %70
  %72 = load i32, ptr %71, align 4, !tbaa !11
  %73 = load i32, ptr %4, align 4, !tbaa !11
  %74 = icmp eq i32 %72, %73
  br i1 %74, label %75, label %82

75:                                               ; preds = %65
  %76 = load ptr, ptr %6, align 8, !tbaa !85
  %77 = getelementptr inbounds nuw %struct._zend_ssa_phi, ptr %76, i32 0, i32 7
  %78 = load ptr, ptr %77, align 8, !tbaa !90
  %79 = load i32, ptr %10, align 4, !tbaa !11
  %80 = sext i32 %79 to i64
  %81 = getelementptr inbounds ptr, ptr %78, i64 %80
  store ptr null, ptr %81, align 8, !tbaa !85
  br label %82

82:                                               ; preds = %75, %65
  br label %83

83:                                               ; preds = %82
  %84 = load i32, ptr %10, align 4, !tbaa !11
  %85 = add nsw i32 %84, 1
  store i32 %85, ptr %10, align 4, !tbaa !11
  br label %61

86:                                               ; preds = %61
  call void @llvm.lifetime.end.p0(i64 4, ptr %11) #13
  call void @llvm.lifetime.end.p0(i64 4, ptr %10) #13
  br label %87

87:                                               ; preds = %86
  %88 = load ptr, ptr %9, align 8, !tbaa !85
  store ptr %88, ptr %6, align 8, !tbaa !85
  br label %34

89:                                               ; preds = %34
  call void @llvm.lifetime.end.p0(i64 8, ptr %9) #13
  call void @llvm.lifetime.end.p0(i64 4, ptr %8) #13
  br label %90

90:                                               ; preds = %89
  br label %91

91:                                               ; preds = %90
  %92 = load ptr, ptr %5, align 8, !tbaa !117
  %93 = getelementptr inbounds nuw %struct._zend_ssa_var, ptr %92, i32 0, i32 5
  store ptr null, ptr %93, align 8, !tbaa !128
  br label %94

94:                                               ; preds = %91
  call void @llvm.lifetime.start.p0(i64 4, ptr %12) #13
  %95 = load ptr, ptr %5, align 8, !tbaa !117
  %96 = load ptr, ptr %3, align 8, !tbaa !48
  %97 = getelementptr inbounds nuw %struct._zend_ssa, ptr %96, i32 0, i32 5
  %98 = load ptr, ptr %97, align 8, !tbaa !116
  %99 = ptrtoint ptr %95 to i64
  %100 = ptrtoint ptr %98 to i64
  %101 = sub i64 %99, %100
  %102 = sdiv exact i64 %101, 48
  %103 = trunc i64 %102 to i32
  store i32 %103, ptr %12, align 4, !tbaa !11
  call void @llvm.lifetime.start.p0(i64 4, ptr %13) #13
  %104 = load ptr, ptr %5, align 8, !tbaa !117
  %105 = getelementptr inbounds nuw %struct._zend_ssa_var, ptr %104, i32 0, i32 3
  %106 = load i32, ptr %105, align 4, !tbaa !122
  store i32 %106, ptr %7, align 4, !tbaa !11
  br label %107

107:                                              ; preds = %156, %94
  %108 = load i32, ptr %7, align 4, !tbaa !11
  %109 = icmp sge i32 %108, 0
  br i1 %109, label %110, label %158

110:                                              ; preds = %107
  %111 = load ptr, ptr %3, align 8, !tbaa !48
  %112 = getelementptr inbounds nuw %struct._zend_ssa, ptr %111, i32 0, i32 4
  %113 = load ptr, ptr %112, align 8, !tbaa !97
  %114 = load i32, ptr %12, align 4, !tbaa !11
  %115 = load i32, ptr %7, align 4, !tbaa !11
  %116 = call i32 @zend_ssa_next_use(ptr noundef %113, i32 noundef %114, i32 noundef %115)
  store i32 %116, ptr %13, align 4, !tbaa !11
  call void @llvm.lifetime.start.p0(i64 8, ptr %14) #13
  %117 = load ptr, ptr %3, align 8, !tbaa !48
  %118 = getelementptr inbounds nuw %struct._zend_ssa, ptr %117, i32 0, i32 4
  %119 = load ptr, ptr %118, align 8, !tbaa !97
  %120 = load i32, ptr %7, align 4, !tbaa !11
  %121 = sext i32 %120 to i64
  %122 = getelementptr inbounds %struct._zend_ssa_op, ptr %119, i64 %121
  store ptr %122, ptr %14, align 8, !tbaa !13
  %123 = load ptr, ptr %14, align 8, !tbaa !13
  %124 = getelementptr inbounds nuw %struct._zend_ssa_op, ptr %123, i32 0, i32 0
  %125 = load i32, ptr %124, align 4, !tbaa !20
  %126 = load i32, ptr %4, align 4, !tbaa !11
  %127 = icmp eq i32 %125, %126
  br i1 %127, label %128, label %133

128:                                              ; preds = %110
  %129 = load ptr, ptr %14, align 8, !tbaa !13
  %130 = getelementptr inbounds nuw %struct._zend_ssa_op, ptr %129, i32 0, i32 0
  store i32 -1, ptr %130, align 4, !tbaa !20
  %131 = load ptr, ptr %14, align 8, !tbaa !13
  %132 = getelementptr inbounds nuw %struct._zend_ssa_op, ptr %131, i32 0, i32 6
  store i32 -1, ptr %132, align 4, !tbaa !123
  br label %133

133:                                              ; preds = %128, %110
  %134 = load ptr, ptr %14, align 8, !tbaa !13
  %135 = getelementptr inbounds nuw %struct._zend_ssa_op, ptr %134, i32 0, i32 1
  %136 = load i32, ptr %135, align 4, !tbaa !23
  %137 = load i32, ptr %4, align 4, !tbaa !11
  %138 = icmp eq i32 %136, %137
  br i1 %138, label %139, label %144

139:                                              ; preds = %133
  %140 = load ptr, ptr %14, align 8, !tbaa !13
  %141 = getelementptr inbounds nuw %struct._zend_ssa_op, ptr %140, i32 0, i32 1
  store i32 -1, ptr %141, align 4, !tbaa !23
  %142 = load ptr, ptr %14, align 8, !tbaa !13
  %143 = getelementptr inbounds nuw %struct._zend_ssa_op, ptr %142, i32 0, i32 7
  store i32 -1, ptr %143, align 4, !tbaa !124
  br label %144

144:                                              ; preds = %139, %133
  %145 = load ptr, ptr %14, align 8, !tbaa !13
  %146 = getelementptr inbounds nuw %struct._zend_ssa_op, ptr %145, i32 0, i32 2
  %147 = load i32, ptr %146, align 4, !tbaa !26
  %148 = load i32, ptr %4, align 4, !tbaa !11
  %149 = icmp eq i32 %147, %148
  br i1 %149, label %150, label %155

150:                                              ; preds = %144
  %151 = load ptr, ptr %14, align 8, !tbaa !13
  %152 = getelementptr inbounds nuw %struct._zend_ssa_op, ptr %151, i32 0, i32 2
  store i32 -1, ptr %152, align 4, !tbaa !26
  %153 = load ptr, ptr %14, align 8, !tbaa !13
  %154 = getelementptr inbounds nuw %struct._zend_ssa_op, ptr %153, i32 0, i32 8
  store i32 -1, ptr %154, align 4, !tbaa !125
  br label %155

155:                                              ; preds = %150, %144
  call void @llvm.lifetime.end.p0(i64 8, ptr %14) #13
  br label %156

156:                                              ; preds = %155
  %157 = load i32, ptr %13, align 4, !tbaa !11
  store i32 %157, ptr %7, align 4, !tbaa !11
  br label %107

158:                                              ; preds = %107
  call void @llvm.lifetime.end.p0(i64 4, ptr %13) #13
  call void @llvm.lifetime.end.p0(i64 4, ptr %12) #13
  br label %159

159:                                              ; preds = %158
  br label %160

160:                                              ; preds = %159
  %161 = load ptr, ptr %5, align 8, !tbaa !117
  %162 = getelementptr inbounds nuw %struct._zend_ssa_var, ptr %161, i32 0, i32 3
  store i32 -1, ptr %162, align 4, !tbaa !122
  call void @llvm.lifetime.end.p0(i64 4, ptr %7) #13
  call void @llvm.lifetime.end.p0(i64 8, ptr %6) #13
  call void @llvm.lifetime.end.p0(i64 8, ptr %5) #13
  ret void
}