; Function Attrs: nofree norecurse nosync nounwind memory(readwrite, inaccessiblemem: none) uwtable
define hidden void @zend_ssa_remove_uses_of_var(ptr noundef readonly captures(none) %0, i32 noundef %1) local_unnamed_addr #8 {
  %3 = getelementptr inbounds nuw i8, ptr %0, i64 64
  %4 = load ptr, ptr %3, align 8, !tbaa !115
  %5 = sext i32 %1 to i64
  %6 = getelementptr inbounds %struct._zend_ssa_var, ptr %4, i64 %5
  %7 = getelementptr inbounds nuw i8, ptr %6, i64 24
  %8 = load ptr, ptr %7, align 8, !tbaa !126
  %.not53 = icmp eq ptr %8, null
  br i1 %.not53, label %._crit_edge, label %.lr.ph57

.lr.ph57:                                         ; preds = %2
  %9 = getelementptr inbounds nuw i8, ptr %0, i64 8
  br label %10

.loopexit:                                        ; preds = %47
  %.not = icmp eq ptr %.013.i4771, null
  br i1 %.not, label %._crit_edge, label %10

10:                                               ; preds = %.lr.ph57, %.loopexit
  %.054 = phi ptr [ %8, %.lr.ph57 ], [ %.013.i4771, %.loopexit ]
  %11 = getelementptr inbounds nuw i8, ptr %.054, i64 8
  %12 = load i32, ptr %11, align 8, !tbaa !100
  %13 = icmp sgt i32 %12, -1
  br i1 %13, label %zend_ssa_next_use_phi.exit.thread68, label %.preheader

.preheader:                                       ; preds = %10
  %14 = load ptr, ptr %9, align 8, !tbaa !38
  %15 = getelementptr inbounds nuw i8, ptr %.054, i64 72
  %16 = load i32, ptr %15, align 8, !tbaa !124
  %17 = sext i32 %16 to i64
  %18 = getelementptr inbounds %struct._zend_basic_block, ptr %14, i64 %17, i32 5
  %19 = load i32, ptr %18, align 8, !tbaa !94
  %.not4849 = icmp sgt i32 %19, 0
  br i1 %.not4849, label %.lr.ph, label %._crit_edge

.lr.ph:                                           ; preds = %.preheader
  %20 = getelementptr inbounds nuw i8, ptr %.054, i64 96
  %21 = load ptr, ptr %20, align 8, !tbaa !98
  %22 = zext nneg i32 %19 to i64
  br label %27

zend_ssa_next_use_phi.exit.thread68:              ; preds = %10
  %23 = getelementptr inbounds nuw i8, ptr %.054, i64 80
  %24 = load ptr, ptr %23, align 8, !tbaa !99
  %25 = load ptr, ptr %24, align 8, !tbaa !103
  br label %.lr.ph52

26:                                               ; preds = %27
  %indvars.iv.next = add nuw nsw i64 %indvars.iv, 1
  %exitcond.not = icmp eq i64 %indvars.iv.next, %22
  br i1 %exitcond.not, label %zend_ssa_next_use_phi.exit, label %27

27:                                               ; preds = %.lr.ph, %26
  %indvars.iv = phi i64 [ 0, %.lr.ph ], [ %indvars.iv.next, %26 ]
  %28 = getelementptr inbounds nuw i32, ptr %21, i64 %indvars.iv
  %29 = load i32, ptr %28, align 4, !tbaa !11
  %30 = icmp eq i32 %29, %1
  br i1 %30, label %31, label %26

31:                                               ; preds = %27
  %32 = getelementptr inbounds nuw i8, ptr %.054, i64 80
  %33 = load ptr, ptr %32, align 8, !tbaa !99
  %34 = getelementptr inbounds nuw ptr, ptr %33, i64 %indvars.iv
  %35 = load ptr, ptr %34, align 8, !tbaa !103
  br label %zend_ssa_next_use_phi.exit

zend_ssa_next_use_phi.exit:                       ; preds = %26, %31
  %.013.i47 = phi ptr [ %35, %31 ], [ null, %26 ]
  %36 = zext nneg i32 %19 to i64
  br label %.lr.ph52

.lr.ph52:                                         ; preds = %zend_ssa_next_use_phi.exit, %zend_ssa_next_use_phi.exit.thread68
  %wide.trip.count = phi i64 [ 1, %zend_ssa_next_use_phi.exit.thread68 ], [ %36, %zend_ssa_next_use_phi.exit ]
  %.013.i4771 = phi ptr [ %25, %zend_ssa_next_use_phi.exit.thread68 ], [ %.013.i47, %zend_ssa_next_use_phi.exit ]
  %37 = getelementptr inbounds nuw i8, ptr %.054, i64 96
  %38 = load ptr, ptr %37, align 8, !tbaa !98
  %39 = getelementptr inbounds nuw i8, ptr %.054, i64 80
  br label %40

40:                                               ; preds = %.lr.ph52, %47
  %indvars.iv64 = phi i64 [ 0, %.lr.ph52 ], [ %indvars.iv.next65, %47 ]
  %41 = getelementptr inbounds nuw i32, ptr %38, i64 %indvars.iv64
  %42 = load i32, ptr %41, align 4, !tbaa !11
  %43 = icmp eq i32 %42, %1
  br i1 %43, label %44, label %47

44:                                               ; preds = %40
  %45 = load ptr, ptr %39, align 8, !tbaa !99
  %46 = getelementptr inbounds nuw ptr, ptr %45, i64 %indvars.iv64
  store ptr null, ptr %46, align 8, !tbaa !103
  br label %47

47:                                               ; preds = %40, %44
  %indvars.iv.next65 = add nuw nsw i64 %indvars.iv64, 1
  %exitcond67.not = icmp eq i64 %indvars.iv.next65, %wide.trip.count
  br i1 %exitcond67.not, label %.loopexit, label %40

._crit_edge:                                      ; preds = %.preheader, %.loopexit, %2
  store ptr null, ptr %7, align 8, !tbaa !126
  %48 = getelementptr inbounds nuw i8, ptr %6, i64 12
  %49 = load i32, ptr %48, align 4, !tbaa !120
  %50 = icmp sgt i32 %49, -1
  br i1 %50, label %.lr.ph60, label %._crit_edge61

.lr.ph60:                                         ; preds = %._crit_edge
  %51 = getelementptr inbounds nuw i8, ptr %0, i64 56
  %52 = load ptr, ptr %51, align 8, !tbaa !106
  br label %53

53:                                               ; preds = %.lr.ph60, %77
  %.04458 = phi i32 [ %49, %.lr.ph60 ], [ %.0.i76, %77 ]
  %54 = zext nneg i32 %.04458 to i64
  %55 = getelementptr inbounds nuw %struct._zend_ssa_op, ptr %52, i64 %54
  %56 = load i32, ptr %55, align 4, !tbaa !12
  %57 = icmp eq i32 %56, %1
  br i1 %57, label %62, label %zend_ssa_next_use.exit.thread

zend_ssa_next_use.exit.thread:                    ; preds = %53
  %58 = getelementptr inbounds nuw i8, ptr %55, i64 4
  %59 = load i32, ptr %58, align 4, !tbaa !15
  %60 = icmp eq i32 %59, %1
  %. = select i1 %60, i64 28, i64 32
  %61 = getelementptr inbounds nuw i8, ptr %55, i64 %.
  %.0.i75 = load i32, ptr %61, align 4, !tbaa !11
  br label %65

62:                                               ; preds = %53
  %63 = getelementptr inbounds nuw i8, ptr %55, i64 24
  %.0.i = load i32, ptr %63, align 4, !tbaa !11
  store i32 -1, ptr %55, align 4, !tbaa !12
  %64 = getelementptr inbounds nuw i8, ptr %55, i64 24
  store i32 -1, ptr %64, align 4, !tbaa !121
  br label %65

65:                                               ; preds = %zend_ssa_next_use.exit.thread, %62
  %.0.i76 = phi i32 [ %.0.i75, %zend_ssa_next_use.exit.thread ], [ %.0.i, %62 ]
  %66 = getelementptr inbounds nuw i8, ptr %55, i64 4
  %67 = load i32, ptr %66, align 4, !tbaa !15
  %68 = icmp eq i32 %67, %1
  br i1 %68, label %69, label %71

69:                                               ; preds = %65
  store i32 -1, ptr %66, align 4, !tbaa !15
  %70 = getelementptr inbounds nuw i8, ptr %55, i64 28
  store i32 -1, ptr %70, align 4, !tbaa !122
  br label %71

71:                                               ; preds = %69, %65
  %72 = getelementptr inbounds nuw i8, ptr %55, i64 8
  %73 = load i32, ptr %72, align 4, !tbaa !18
  %74 = icmp eq i32 %73, %1
  br i1 %74, label %75, label %77

75:                                               ; preds = %71
  store i32 -1, ptr %72, align 4, !tbaa !18
  %76 = getelementptr inbounds nuw i8, ptr %55, i64 32
  store i32 -1, ptr %76, align 4, !tbaa !123
  br label %77

77:                                               ; preds = %75, %71
  %78 = icmp sgt i32 %.0.i76, -1
  br i1 %78, label %53, label %._crit_edge61

._crit_edge61:                                    ; preds = %77, %._crit_edge
  store i32 -1, ptr %48, align 4, !tbaa !120
  ret void
}